target datalayout = "e-m:e-p270:32:32-p271:32:32-p272:64:64-i64:64-i128:128-f80:128-n8:16:32:64-S128"
target triple = "x86_64-pc-linux-gnu"

%class.LoopNode = type { %class.RegionNode.base, i32, i8, float }
%class.RegionNode.base = type { %class.Node.base, i8, i32 }
%class.Node.base = type <{ ptr, ptr, ptr, i32, i32, i32, i32, i32, i32, i32 }>

; Function Attrs: mustprogress nounwind uwtable
define linkonce_odr hidden void @_ZN8LoopNode18set_unswitch_countEi(ptr noundef nonnull align 8 dereferenceable(72) %0, i32 noundef %1) #1 comdat align 2 {
  %3 = alloca ptr, align 8
  %4 = alloca i32, align 4
  store ptr %0, ptr %3, align 8
  store i32 %1, ptr %4, align 4
  %5 = load ptr, ptr %3, align 8
  %6 = load i32, ptr %4, align 4
  %7 = trunc i32 %6 to i8
  %8 = getelementptr inbounds %class.LoopNode, ptr %5, i32 0, i32 2
  store i8 %7, ptr %8, align 8
  ret void
}

; Function Attrs: mustprogress nounwind uwtable
define linkonce_odr hidden noundef i32 @_ZN8LoopNode14unswitch_countEv(ptr noundef nonnull align 8 dereferenceable(72) %0) #1 comdat align 2 {
  %2 = alloca ptr, align 8
  store ptr %0, ptr %2, align 8
  %3 = load ptr, ptr %2, align 8
  %4 = getelementptr inbounds %class.LoopNode, ptr %3, i32 0, i32 2
  %5 = load i8, ptr %4, align 8
  %6 = sext i8 %5 to i32
  ret i32 %6
}

; Function Attrs: mustprogress nounwind uwtable
define hidden void @_ZN14PhaseIdealLoop25increment_unswitch_countsEP8LoopNodeS1_(ptr noundef %0, ptr noundef %1) #1 align 2 {
  %3 = alloca ptr, align 8
  %4 = alloca ptr, align 8
  %5 = alloca i32, align 4
  store ptr %0, ptr %3, align 8
  store ptr %1, ptr %4, align 8
  %6 = load ptr, ptr %3, align 8
  %7 = call noundef i32 @_ZN8LoopNode14unswitch_countEv(ptr noundef nonnull align 8 dereferenceable(72) %6)
  %8 = add nsw i32 %7, 1
  store i32 %8, ptr %5, align 4
  %9 = load ptr, ptr %3, align 8
  %10 = load i32, ptr %5, align 4
  call void @_ZN8LoopNode18set_unswitch_countEi(ptr noundef nonnull align 8 dereferenceable(72) %9, i32 noundef %10)
  %11 = load ptr, ptr %4, align 8
  %12 = load i32, ptr %5, align 4
  call void @_ZN8LoopNode18set_unswitch_countEi(ptr noundef nonnull align 8 dereferenceable(72) %11, i32 noundef %12)
  ret void
}